; Function Attrs: mustprogress nofree norecurse nounwind sspstrong willreturn memory(argmem: readwrite) uwtable
define void @_ZN3tbb6detail2r117threading_control7add_refEb(ptr noundef nonnull align 8 captures(none) dereferenceable(16) %0, i1 noundef zeroext %1) local_unnamed_addr #7 align 2 {
  %3 = getelementptr inbounds nuw i8, ptr %0, i64 12
  %4 = atomicrmw add ptr %3, i32 1 seq_cst, align 4
  br i1 %1, label %5, label %8

5:                                                ; preds = %2
  %6 = getelementptr inbounds nuw i8, ptr %0, i64 8
  %7 = atomicrmw add ptr %6, i32 1 seq_cst, align 4
  br label %8

8:                                                ; preds = %5, %2
  ret void
}